target datalayout = "e-m:e-p270:32:32-p271:32:32-p272:64:64-i64:64-i128:128-f80:128-n8:16:32:64-S128"
target triple = "x86_64-pc-linux-gnu"

; Function Attrs: nounwind uwtable
define i32 @BN_GF2m_mod_sqrt_arr(ptr noundef %0, ptr noundef %1, ptr noundef %2, ptr noundef %3) #0 {
  %5 = alloca i32, align 4
  %6 = alloca ptr, align 8
  %7 = alloca ptr, align 8
  %8 = alloca ptr, align 8
  %9 = alloca ptr, align 8
  %10 = alloca i32, align 4
  %11 = alloca ptr, align 8
  %12 = alloca i32, align 4
  store ptr %0, ptr %6, align 8, !tbaa !3
  store ptr %1, ptr %7, align 8, !tbaa !3
  store ptr %2, ptr %8, align 8, !tbaa !19
  store ptr %3, ptr %9, align 8, !tbaa !29
  call void @llvm.lifetime.start.p0(i64 4, ptr %10) #3
  store i32 0, ptr %10, align 4, !tbaa !12
  call void @llvm.lifetime.start.p0(i64 8, ptr %11) #3
  %13 = load ptr, ptr %8, align 8, !tbaa !19
  %14 = getelementptr inbounds i32, ptr %13, i64 0
  %15 = load i32, ptr %14, align 4, !tbaa !12
  %16 = icmp eq i32 %15, 0
  br i1 %16, label %17, label %19

17:                                               ; preds = %4
  %18 = load ptr, ptr %6, align 8, !tbaa !3
  call void @BN_zero_ex(ptr noundef %18)
  store i32 1, ptr %5, align 4
  store i32 1, ptr %12, align 4
  br label %44

19:                                               ; preds = %4
  %20 = load ptr, ptr %9, align 8, !tbaa !29
  call void @BN_CTX_start(ptr noundef %20)
  %21 = load ptr, ptr %9, align 8, !tbaa !29
  %22 = call ptr @BN_CTX_get(ptr noundef %21)
  store ptr %22, ptr %11, align 8, !tbaa !3
  %23 = icmp eq ptr %22, null
  br i1 %23, label %24, label %25

24:                                               ; preds = %19
  br label %41

25:                                               ; preds = %19
  %26 = load ptr, ptr %11, align 8, !tbaa !3
  %27 = load ptr, ptr %8, align 8, !tbaa !19
  %28 = getelementptr inbounds i32, ptr %27, i64 0
  %29 = load i32, ptr %28, align 4, !tbaa !12
  %30 = sub nsw i32 %29, 1
  %31 = call i32 @BN_set_bit(ptr noundef %26, i32 noundef %30)
  %32 = icmp ne i32 %31, 0
  br i1 %32, label %34, label %33

33:                                               ; preds = %25
  br label %41

34:                                               ; preds = %25
  %35 = load ptr, ptr %6, align 8, !tbaa !3
  %36 = load ptr, ptr %7, align 8, !tbaa !3
  %37 = load ptr, ptr %11, align 8, !tbaa !3
  %38 = load ptr, ptr %8, align 8, !tbaa !19
  %39 = load ptr, ptr %9, align 8, !tbaa !29
  %40 = call i32 @BN_GF2m_mod_exp_arr(ptr noundef %35, ptr noundef %36, ptr noundef %37, ptr noundef %38, ptr noundef %39)
  store i32 %40, ptr %10, align 4, !tbaa !12
  br label %41

41:                                               ; preds = %34, %33, %24
  %42 = load ptr, ptr %9, align 8, !tbaa !29
  call void @BN_CTX_end(ptr noundef %42)
  %43 = load i32, ptr %10, align 4, !tbaa !12
  store i32 %43, ptr %5, align 4
  store i32 1, ptr %12, align 4
  br label %44

44:                                               ; preds = %41, %17
  call void @llvm.lifetime.end.p0(i64 8, ptr %11) #3
  call void @llvm.lifetime.end.p0(i64 4, ptr %10) #3
  %45 = load i32, ptr %5, align 4
  ret i32 %45
}