; Function Attrs: nounwind uwtable
define i32 @BN_GF2m_mod_sqrt_arr(ptr noundef %0, ptr noundef %1, ptr noundef readonly captures(none) %2, ptr noundef %3) local_unnamed_addr #0 {
  %5 = load i32, ptr %2, align 4, !tbaa !16
  %6 = icmp eq i32 %5, 0
  br i1 %6, label %7, label %8

7:                                                ; preds = %4
  tail call void @BN_zero_ex(ptr noundef %0) #5
  br label %18

8:                                                ; preds = %4
  tail call void @BN_CTX_start(ptr noundef %3) #5
  %9 = tail call ptr @BN_CTX_get(ptr noundef %3) #5
  %10 = icmp eq ptr %9, null
  br i1 %10, label %17, label %11

11:                                               ; preds = %8
  %12 = load i32, ptr %2, align 4, !tbaa !16
  %13 = add nsw i32 %12, -1
  %14 = tail call i32 @BN_set_bit(ptr noundef nonnull %9, i32 noundef %13) #5
  %.not = icmp eq i32 %14, 0
  br i1 %.not, label %17, label %15

15:                                               ; preds = %11
  %16 = tail call i32 @BN_GF2m_mod_exp_arr(ptr noundef %0, ptr noundef %1, ptr noundef nonnull %9, ptr noundef nonnull %2, ptr noundef %3)
  br label %17

17:                                               ; preds = %11, %8, %15
  %.013 = phi i32 [ 0, %8 ], [ %16, %15 ], [ 0, %11 ]
  tail call void @BN_CTX_end(ptr noundef %3) #5
  br label %18

18:                                               ; preds = %17, %7
  %.0 = phi i32 [ 1, %7 ], [ %.013, %17 ]
  ret i32 %.0
}